(dp1
S'failed'
p2
(lp3
S'13'
p4
asS'source_names'
p5
(lp6
S'.'
asS'ids'
p7
(dp8
I1
(S'/home/nick/src/python/GEM/oq-hazardlib/openquake/baselib/tests/general_test.py'
S'openquake.baselib.tests.general_test'
p9
S'AssertCloseTestCase.test_different'
tp10
sI2
(S'/home/nick/src/python/GEM/oq-hazardlib/openquake/baselib/tests/general_test.py'
g9
S'BlockSplitterTestCase.test_block_splitter'
tp11
sI3
(S'/home/nick/src/python/GEM/oq-hazardlib/openquake/baselib/tests/general_test.py'
g9
S'BlockSplitterTestCase.test_block_splitter_block_size_eq_data_len'
tp12
sI4
(S'/home/nick/src/python/GEM/oq-hazardlib/openquake/baselib/tests/general_test.py'
g9
S'BlockSplitterTestCase.test_block_splitter_block_size_gt_data_len'
tp13
sI5
(S'/home/nick/src/python/GEM/oq-hazardlib/openquake/baselib/tests/general_test.py'
g9
S'BlockSplitterTestCase.test_block_splitter_block_size_lt_zero'
tp14
sI6
(S'/home/nick/src/python/GEM/oq-hazardlib/openquake/baselib/tests/general_test.py'
g9
S'BlockSplitterTestCase.test_block_splitter_with_generator'
tp15
sI7
(S'/home/nick/src/python/GEM/oq-hazardlib/openquake/baselib/tests/general_test.py'
g9
S'BlockSplitterTestCase.test_block_splitter_with_iter'
tp16
sI8
(S'/home/nick/src/python/GEM/oq-hazardlib/openquake/baselib/tests/general_test.py'
g9
S'BlockSplitterTestCase.test_block_splitter_zero_block_size'
tp17
sI9
(S'/home/nick/src/python/GEM/oq-hazardlib/openquake/baselib/tests/general_test.py'
g9
S'BlockSplitterTestCase.test_split_in_blocks'
tp18
sI10
(S'/home/nick/src/python/GEM/oq-hazardlib/openquake/baselib/tests/general_test.py'
g9
S'BlockSplitterTestCase.test_split_with_kind'
tp19
sI11
(S'/home/nick/src/python/GEM/oq-hazardlib/openquake/baselib/tests/general_test.py'
g9
S'BlockSplitterTestCase.test_split_with_weight'
tp20
sI12
(S'/home/nick/src/python/GEM/oq-hazardlib/openquake/baselib/tests/general_test.py'
g9
S'DeprecatedTestCase.test'
tp21
sI13
(S'/home/nick/src/python/GEM/oq-hazardlib/openquake/baselib/tests/general_test.py'
g9
S'SearchModuleTestCase.test_existing_module_in_package'
tp22
sI14
(S'/home/nick/src/python/GEM/oq-hazardlib/openquake/baselib/tests/general_test.py'
g9
S'SearchModuleTestCase.test_existing_module_simple'
tp23
sI15
(S'/home/nick/src/python/GEM/oq-hazardlib/openquake/baselib/tests/general_test.py'
g9
S'SearchModuleTestCase.test_non_existing_module_in_package'
tp24
sI16
(S'/home/nick/src/python/GEM/oq-hazardlib/openquake/baselib/tests/general_test.py'
g9
S'SearchModuleTestCase.test_non_existing_module_simple'
tp25
sI17
(S'/home/nick/src/python/GEM/oq-hazardlib/openquake/baselib/tests/performance_test.py'
S'openquake.baselib.tests.performance_test'
p26
S'MonitorTestCase.test_children'
tp27
sI18
(S'/home/nick/src/python/GEM/oq-hazardlib/openquake/baselib/tests/performance_test.py'
g26
S'MonitorTestCase.test_mem'
tp28
sI19
(S'/home/nick/src/python/GEM/oq-hazardlib/openquake/baselib/tests/performance_test.py'
g26
S'MonitorTestCase.test_no_mem'
tp29
sI20
(S'/home/nick/src/python/GEM/oq-hazardlib/openquake/baselib/tests/performance_test.py'
g26
S'MonitorTestCase.test_pickleable'
tp30
sI21
(S'/home/nick/src/python/GEM/oq-hazardlib/openquake/hazardlib/tests/acceptance/disagg_test.py'
S'openquake.hazardlib.tests.acceptance.disagg_test'
p31
S'DisaggTestCase.test_areasource'
tp32
ss.